target datalayout = "e-m:e-p270:32:32-p271:32:32-p272:64:64-i64:64-i128:128-f80:128-n8:16:32:64-S128"
target triple = "x86_64-pc-linux-gnu"

%"class.llvm::StringRef" = type { ptr, i64 }
%class.anon.545 = type { ptr }

; Function Attrs: mustprogress nounwind uwtable
define internal void @"_ZZN4llvm3lto3LTO13addRegularLTOENS_13BitcodeModuleENS_8ArrayRefINS0_9InputFile6SymbolEEERPKNS0_16SymbolResolutionES9_ENK3$_1clENS_9StringRefESC_"(ptr noundef nonnull align 8 dereferenceable(8) %0, ptr %1, i64 %2, ptr %3, i64 %4) #1 align 2 {
  %6 = alloca %"class.llvm::StringRef", align 8
  %7 = alloca %"class.llvm::StringRef", align 8
  %8 = alloca ptr, align 8
  %9 = getelementptr inbounds nuw { ptr, i64 }, ptr %6, i32 0, i32 0
  store ptr %1, ptr %9, align 8
  %10 = getelementptr inbounds nuw { ptr, i64 }, ptr %6, i32 0, i32 1
  store i64 %2, ptr %10, align 8
  %11 = getelementptr inbounds nuw { ptr, i64 }, ptr %7, i32 0, i32 0
  store ptr %3, ptr %11, align 8
  %12 = getelementptr inbounds nuw { ptr, i64 }, ptr %7, i32 0, i32 1
  store i64 %4, ptr %12, align 8
  store ptr %0, ptr %8, align 8
  %13 = load ptr, ptr %8, align 8
  %14 = getelementptr inbounds nuw %class.anon.545, ptr %13, i32 0, i32 0
  %15 = load ptr, ptr %14, align 8
  %16 = call noundef i64 @_ZNK4llvm8SmallSetINS_9StringRefELj2ESt4lessIS1_EE5countERKS1_(ptr noundef nonnull align 8 dereferenceable(96) %15, ptr noundef nonnull align 8 dereferenceable(16) %7)
  %17 = icmp ne i64 %16, 0
  br i1 %17, label %22, label %18

18:                                               ; preds = %5
  %19 = getelementptr inbounds nuw %class.anon.545, ptr %13, i32 0, i32 0
  %20 = load ptr, ptr %19, align 8
  %21 = call noundef zeroext i1 @_ZN4llvm8SmallSetINS_9StringRefELj2ESt4lessIS1_EE5eraseERKS1_(ptr noundef nonnull align 8 dereferenceable(96) %20, ptr noundef nonnull align 8 dereferenceable(16) %6)
  br label %22

22:                                               ; preds = %18, %5
  ret void
}

; Function Attrs: mustprogress nounwind uwtable
define internal void @"_ZN4llvm12function_refIFvNS_9StringRefES1_EE11callback_fnIZNS_3lto3LTO13addRegularLTOENS_13BitcodeModuleENS_8ArrayRefINS5_9InputFile6SymbolEEERPKNS5_16SymbolResolutionESE_E3$_1EEvlS1_S1_"(i64 noundef %0, ptr %1, i64 %2, ptr %3, i64 %4) #1 align 2 {
  %6 = alloca %"class.llvm::StringRef", align 8
  %7 = alloca %"class.llvm::StringRef", align 8
  %8 = alloca i64, align 8
  %9 = alloca %"class.llvm::StringRef", align 8
  %10 = alloca %"class.llvm::StringRef", align 8
  %11 = getelementptr inbounds nuw { ptr, i64 }, ptr %6, i32 0, i32 0
  store ptr %1, ptr %11, align 8
  %12 = getelementptr inbounds nuw { ptr, i64 }, ptr %6, i32 0, i32 1
  store i64 %2, ptr %12, align 8
  %13 = getelementptr inbounds nuw { ptr, i64 }, ptr %7, i32 0, i32 0
  store ptr %3, ptr %13, align 8
  %14 = getelementptr inbounds nuw { ptr, i64 }, ptr %7, i32 0, i32 1
  store i64 %4, ptr %14, align 8
  store i64 %0, ptr %8, align 8
  %15 = load i64, ptr %8, align 8
  %16 = inttoptr i64 %15 to ptr
  call void @llvm.memcpy.p0.p0.i64(ptr align 8 %9, ptr align 8 %6, i64 16, i1 false)
  call void @llvm.memcpy.p0.p0.i64(ptr align 8 %10, ptr align 8 %7, i64 16, i1 false)
  %17 = getelementptr inbounds nuw { ptr, i64 }, ptr %9, i32 0, i32 0
  %18 = load ptr, ptr %17, align 8
  %19 = getelementptr inbounds nuw { ptr, i64 }, ptr %9, i32 0, i32 1
  %20 = load i64, ptr %19, align 8
  %21 = getelementptr inbounds nuw { ptr, i64 }, ptr %10, i32 0, i32 0
  %22 = load ptr, ptr %21, align 8
  %23 = getelementptr inbounds nuw { ptr, i64 }, ptr %10, i32 0, i32 1
  %24 = load i64, ptr %23, align 8
  call void @"_ZZN4llvm3lto3LTO13addRegularLTOENS_13BitcodeModuleENS_8ArrayRefINS0_9InputFile6SymbolEEERPKNS0_16SymbolResolutionES9_ENK3$_1clENS_9StringRefESC_"(ptr noundef nonnull align 8 dereferenceable(8) %16, ptr %18, i64 %20, ptr %22, i64 %24)
  ret void
}