; Function Attrs: mustprogress nounwind uwtable
define internal void @"_ZN4llvm12function_refIFvNS_9StringRefES1_EE11callback_fnIZNS_3lto3LTO13addRegularLTOENS_13BitcodeModuleENS_8ArrayRefINS5_9InputFile6SymbolEEERPKNS5_16SymbolResolutionESE_E3$_1EEvlS1_S1_"(i64 noundef %0, ptr %1, i64 %2, ptr %3, i64 %4) #0 align 2 {
  %6 = alloca %"class.llvm::StringRef", align 8
  %7 = alloca %"class.llvm::StringRef", align 8
  %8 = inttoptr i64 %0 to ptr
  call void @llvm.lifetime.start.p0(i64 16, ptr nonnull %6)
  call void @llvm.lifetime.start.p0(i64 16, ptr nonnull %7)
  store ptr %1, ptr %6, align 8
  %9 = getelementptr inbounds nuw i8, ptr %6, i64 8
  store i64 %2, ptr %9, align 8
  store ptr %3, ptr %7, align 8
  %10 = getelementptr inbounds nuw i8, ptr %7, i64 8
  store i64 %4, ptr %10, align 8
  %11 = load ptr, ptr %8, align 8
  %12 = call noundef i64 @_ZNK4llvm8SmallSetINS_9StringRefELj2ESt4lessIS1_EE5countERKS1_(ptr noundef nonnull align 8 dereferenceable(96) %11, ptr noundef nonnull align 8 dereferenceable(16) %7)
  %.not.i = icmp eq i64 %12, 0
  br i1 %.not.i, label %13, label %"_ZZN4llvm3lto3LTO13addRegularLTOENS_13BitcodeModuleENS_8ArrayRefINS0_9InputFile6SymbolEEERPKNS0_16SymbolResolutionES9_ENK3$_1clENS_9StringRefESC_.exit"

13:                                               ; preds = %5
  %14 = load ptr, ptr %8, align 8
  %15 = call noundef zeroext i1 @_ZN4llvm8SmallSetINS_9StringRefELj2ESt4lessIS1_EE5eraseERKS1_(ptr noundef nonnull align 8 dereferenceable(96) %14, ptr noundef nonnull align 8 dereferenceable(16) %6)
  br label %"_ZZN4llvm3lto3LTO13addRegularLTOENS_13BitcodeModuleENS_8ArrayRefINS0_9InputFile6SymbolEEERPKNS0_16SymbolResolutionES9_ENK3$_1clENS_9StringRefESC_.exit"

"_ZZN4llvm3lto3LTO13addRegularLTOENS_13BitcodeModuleENS_8ArrayRefINS0_9InputFile6SymbolEEERPKNS0_16SymbolResolutionES9_ENK3$_1clENS_9StringRefESC_.exit": ; preds = %5, %13
  call void @llvm.lifetime.end.p0(i64 16, ptr nonnull %6)
  call void @llvm.lifetime.end.p0(i64 16, ptr nonnull %7)
  ret void
}